; Function Attrs: mustprogress uwtable
define void @_ZN10llama_mmapC2EP10llama_filemb(ptr noundef nonnull writeonly align 8 captures(none) dereferenceable(8) %0, ptr noundef %1, i64 noundef %2, i1 noundef zeroext %3) unnamed_addr #0 align 2 personality ptr @__gxx_personality_v0 {
  tail call void @llvm.experimental.noalias.scope.decl(metadata !24)
  %5 = tail call noalias noundef nonnull dereferenceable(40) ptr @_Znwm(i64 noundef 40) #22, !noalias !24
  invoke void @_ZN10llama_mmap4implC2EP10llama_filemb(ptr noundef nonnull align 8 dereferenceable(40) %5, ptr noundef %1, i64 noundef %2, i1 noundef zeroext %3)
          to label %_ZSt11make_uniqueIN10llama_mmap4implEJRP10llama_fileRmRbEENSt8__detail9_MakeUniqIT_E15__single_objectEDpOT0_.exit unwind label %6, !noalias !24

6:                                                ; preds = %4
  %7 = landingpad { ptr, i32 }
          cleanup
  tail call void @_ZdlPvm(ptr noundef nonnull %5, i64 noundef 40) #23, !noalias !24
  resume { ptr, i32 } %7

_ZSt11make_uniqueIN10llama_mmap4implEJRP10llama_fileRmRbEENSt8__detail9_MakeUniqIT_E15__single_objectEDpOT0_.exit: ; preds = %4
  store ptr %5, ptr %0, align 8, !tbaa !27, !alias.scope !24
  ret void
}